target datalayout = "e-m:e-p270:32:32-p271:32:32-p272:64:64-i64:64-i128:128-f80:128-n8:16:32:64-S128"
target triple = "x86_64-pc-linux-gnu"

%"class.std::__cxx11::basic_string" = type { %"struct.std::__cxx11::basic_string<char>::_Alloc_hider", i64, %union.anon }
%"struct.std::__cxx11::basic_string<char>::_Alloc_hider" = type { ptr }
%union.anon = type { i64, [8 x i8] }
%"struct.faiss::IndexBinary" = type { ptr, i32, i32, i64, i8, i8, i32 }

@.str = private unnamed_addr constant [19 x i8] c"Error: '%s' failed\00", align 1
@.str.2 = private unnamed_addr constant [111 x i8] c"generated/home/dtcxzyw/WorkSpace/Projects/compilers/llvm-opt-benchmark/bench/faiss/faiss/faiss/IndexBinary.cpp\00", align 1
@_ZTIN5faiss14FaissExceptionE = external constant ptr
@.str.9 = private unnamed_addr constant [6 x i8] c"k > 0\00", align 1

; Function Attrs: mustprogress uwtable
define void @_ZNK5faiss11IndexBinary22search_and_reconstructElPKhlPiPlPhPKNS_16SearchParametersE(ptr noundef nonnull align 8 dereferenceable(32) %0, i64 noundef %1, ptr noundef %2, i64 noundef %3, ptr noundef %4, ptr noundef %5, ptr noundef %6, ptr noundef %7) unnamed_addr #1 align 2 personality ptr @__gxx_personality_v0 {
  %9 = alloca ptr, align 8
  %10 = alloca i64, align 8
  %11 = alloca ptr, align 8
  %12 = alloca i64, align 8
  %13 = alloca ptr, align 8
  %14 = alloca ptr, align 8
  %15 = alloca ptr, align 8
  %16 = alloca ptr, align 8
  %17 = alloca %"class.std::__cxx11::basic_string", align 8
  %18 = alloca i32, align 4
  %19 = alloca ptr, align 8
  %20 = alloca i32, align 4
  %21 = alloca i64, align 8
  %22 = alloca i64, align 8
  %23 = alloca i64, align 8
  %24 = alloca i64, align 8
  %25 = alloca ptr, align 8
  store ptr %0, ptr %9, align 8
  store i64 %1, ptr %10, align 8
  store ptr %2, ptr %11, align 8
  store i64 %3, ptr %12, align 8
  store ptr %4, ptr %13, align 8
  store ptr %5, ptr %14, align 8
  store ptr %6, ptr %15, align 8
  store ptr %7, ptr %16, align 8
  %26 = load ptr, ptr %9, align 8
  br label %27

27:                                               ; preds = %8
  %28 = load i64, ptr %12, align 8
  %29 = icmp sgt i64 %28, 0
  br i1 %29, label %53, label %30

30:                                               ; preds = %27
  br label %31

31:                                               ; preds = %30
  call void @_ZNSt7__cxx1112basic_stringIcSt11char_traitsIcESaIcEEC1Ev(ptr noundef nonnull align 8 dereferenceable(32) %17) #11
  %32 = call i32 (ptr, i64, ptr, ...) @snprintf(ptr noundef null, i64 noundef 0, ptr noundef @.str, ptr noundef @.str.9) #11
  store i32 %32, ptr %18, align 4
  %33 = load i32, ptr %18, align 4
  %34 = add nsw i32 %33, 1
  %35 = sext i32 %34 to i64
  invoke void @_ZNSt7__cxx1112basic_stringIcSt11char_traitsIcESaIcEE6resizeEm(ptr noundef nonnull align 8 dereferenceable(32) %17, i64 noundef %35)
          to label %36 unwind label %43

36:                                               ; preds = %31
  %37 = invoke noundef nonnull align 1 dereferenceable(1) ptr @_ZNSt7__cxx1112basic_stringIcSt11char_traitsIcESaIcEEixEm(ptr noundef nonnull align 8 dereferenceable(32) %17, i64 noundef 0)
          to label %38 unwind label %43

38:                                               ; preds = %36
  %39 = call noundef i64 @_ZNKSt7__cxx1112basic_stringIcSt11char_traitsIcESaIcEE4sizeEv(ptr noundef nonnull align 8 dereferenceable(32) %17) #11
  %40 = call i32 (ptr, i64, ptr, ...) @snprintf(ptr noundef %37, i64 noundef %39, ptr noundef @.str, ptr noundef @.str.9) #11
  %41 = call ptr @__cxa_allocate_exception(i64 40) #11
  invoke void @_ZN5faiss14FaissExceptionC1ERKNSt7__cxx1112basic_stringIcSt11char_traitsIcESaIcEEEPKcSA_i(ptr noundef nonnull align 8 dereferenceable(40) %41, ptr noundef nonnull align 8 dereferenceable(32) %17, ptr noundef @__PRETTY_FUNCTION__._ZNK5faiss11IndexBinary22search_and_reconstructElPKhlPiPlPhPKNS_16SearchParametersE, ptr noundef @.str.2, i32 noundef 71)
          to label %42 unwind label %47

42:                                               ; preds = %38
  invoke void @__cxa_throw(ptr %41, ptr @_ZTIN5faiss14FaissExceptionE, ptr @_ZN5faiss14FaissExceptionD2Ev) #12
          to label %117 unwind label %43

43:                                               ; preds = %42, %36, %31
  %44 = landingpad { ptr, i32 }
          cleanup
  %45 = extractvalue { ptr, i32 } %44, 0
  store ptr %45, ptr %19, align 8
  %46 = extractvalue { ptr, i32 } %44, 1
  store i32 %46, ptr %20, align 4
  br label %51

47:                                               ; preds = %38
  %48 = landingpad { ptr, i32 }
          cleanup
  %49 = extractvalue { ptr, i32 } %48, 0
  store ptr %49, ptr %19, align 8
  %50 = extractvalue { ptr, i32 } %48, 1
  store i32 %50, ptr %20, align 4
  call void @__cxa_free_exception(ptr %41) #11
  br label %51

51:                                               ; preds = %47, %43
  call void @_ZNSt7__cxx1112basic_stringIcSt11char_traitsIcESaIcEED1Ev(ptr noundef nonnull align 8 dereferenceable(32) %17) #11
  br label %112

52:                                               ; No predecessors!
  br label %53

53:                                               ; preds = %52, %27
  br label %54

54:                                               ; preds = %53
  %55 = load i64, ptr %10, align 8
  %56 = load ptr, ptr %11, align 8
  %57 = load i64, ptr %12, align 8
  %58 = load ptr, ptr %13, align 8
  %59 = load ptr, ptr %14, align 8
  %60 = load ptr, ptr %16, align 8
  %61 = load ptr, ptr %26, align 8
  %62 = getelementptr inbounds ptr, ptr %61, i64 5
  %63 = load ptr, ptr %62, align 8
  call void %63(ptr noundef nonnull align 8 dereferenceable(32) %26, i64 noundef %55, ptr noundef %56, i64 noundef %57, ptr noundef %58, ptr noundef %59, ptr noundef %60)
  store i64 0, ptr %21, align 8
  br label %64

64:                                               ; preds = %108, %54
  %65 = load i64, ptr %21, align 8
  %66 = load i64, ptr %10, align 8
  %67 = icmp slt i64 %65, %66
  br i1 %67, label %68, label %111

68:                                               ; preds = %64
  store i64 0, ptr %22, align 8
  br label %69

69:                                               ; preds = %104, %68
  %70 = load i64, ptr %22, align 8
  %71 = load i64, ptr %12, align 8
  %72 = icmp slt i64 %70, %71
  br i1 %72, label %73, label %107

73:                                               ; preds = %69
  %74 = load i64, ptr %21, align 8
  %75 = load i64, ptr %12, align 8
  %76 = mul nsw i64 %74, %75
  %77 = load i64, ptr %22, align 8
  %78 = add nsw i64 %76, %77
  store i64 %78, ptr %23, align 8
  %79 = load ptr, ptr %14, align 8
  %80 = load i64, ptr %23, align 8
  %81 = getelementptr inbounds i64, ptr %79, i64 %80
  %82 = load i64, ptr %81, align 8
  store i64 %82, ptr %24, align 8
  %83 = load ptr, ptr %15, align 8
  %84 = load i64, ptr %23, align 8
  %85 = getelementptr inbounds %"struct.faiss::IndexBinary", ptr %26, i32 0, i32 2
  %86 = load i32, ptr %85, align 4
  %87 = sext i32 %86 to i64
  %88 = mul nsw i64 %84, %87
  %89 = getelementptr inbounds i8, ptr %83, i64 %88
  store ptr %89, ptr %25, align 8
  %90 = load i64, ptr %24, align 8
  %91 = icmp slt i64 %90, 0
  br i1 %91, label %92, label %97

92:                                               ; preds = %73
  %93 = load ptr, ptr %25, align 8
  %94 = getelementptr inbounds %"struct.faiss::IndexBinary", ptr %26, i32 0, i32 2
  %95 = load i32, ptr %94, align 4
  %96 = sext i32 %95 to i64
  call void @llvm.memset.p0.i64(ptr align 1 %93, i8 -1, i64 %96, i1 false)
  br label %103

97:                                               ; preds = %73
  %98 = load i64, ptr %24, align 8
  %99 = load ptr, ptr %25, align 8
  %100 = load ptr, ptr %26, align 8
  %101 = getelementptr inbounds ptr, ptr %100, i64 9
  %102 = load ptr, ptr %101, align 8
  call void %102(ptr noundef nonnull align 8 dereferenceable(32) %26, i64 noundef %98, ptr noundef %99)
  br label %103

103:                                              ; preds = %97, %92
  br label %104

104:                                              ; preds = %103
  %105 = load i64, ptr %22, align 8
  %106 = add nsw i64 %105, 1
  store i64 %106, ptr %22, align 8
  br label %69, !llvm.loop !7

107:                                              ; preds = %69
  br label %108

108:                                              ; preds = %107
  %109 = load i64, ptr %21, align 8
  %110 = add nsw i64 %109, 1
  store i64 %110, ptr %21, align 8
  br label %64, !llvm.loop !8

111:                                              ; preds = %64
  ret void

112:                                              ; preds = %51
  %113 = load ptr, ptr %19, align 8
  %114 = load i32, ptr %20, align 4
  %115 = insertvalue { ptr, i32 } poison, ptr %113, 0
  %116 = insertvalue { ptr, i32 } %115, i32 %114, 1
  resume { ptr, i32 } %116

117:                                              ; preds = %42
  unreachable
}