; Function Attrs: mustprogress uwtable
define void @_ZNK5faiss11IndexBinary22search_and_reconstructElPKhlPiPlPhPKNS_16SearchParametersE(ptr noundef nonnull align 8 dereferenceable(32) %0, i64 noundef %1, ptr noundef %2, i64 noundef %3, ptr noundef %4, ptr noundef %5, ptr noundef %6, ptr noundef %7) unnamed_addr #3 align 2 personality ptr @__gxx_personality_v0 {
  %9 = alloca %"class.std::__cxx11::basic_string", align 8
  %10 = icmp sgt i64 %3, 0
  br i1 %10, label %27, label %11

11:                                               ; preds = %8
  call void @_ZNSt7__cxx1112basic_stringIcSt11char_traitsIcESaIcEEC1Ev(ptr noundef nonnull align 8 dereferenceable(32) %9) #16
  %12 = call i32 (ptr, i64, ptr, ...) @snprintf(ptr noundef null, i64 noundef 0, ptr noundef nonnull @.str, ptr noundef nonnull @.str.9) #16
  %13 = add nsw i32 %12, 1
  %14 = sext i32 %13 to i64
  invoke void @_ZNSt7__cxx1112basic_stringIcSt11char_traitsIcESaIcEE6resizeEm(ptr noundef nonnull align 8 dereferenceable(32) %9, i64 noundef %14)
          to label %15 unwind label %22

15:                                               ; preds = %11
  %16 = invoke noundef nonnull align 1 dereferenceable(1) ptr @_ZNSt7__cxx1112basic_stringIcSt11char_traitsIcESaIcEEixEm(ptr noundef nonnull align 8 dereferenceable(32) %9, i64 noundef 0)
          to label %17 unwind label %22

17:                                               ; preds = %15
  %18 = call noundef i64 @_ZNKSt7__cxx1112basic_stringIcSt11char_traitsIcESaIcEE4sizeEv(ptr noundef nonnull align 8 dereferenceable(32) %9) #16
  %19 = call i32 (ptr, i64, ptr, ...) @snprintf(ptr noundef nonnull %16, i64 noundef %18, ptr noundef nonnull @.str, ptr noundef nonnull @.str.9) #16
  %20 = call ptr @__cxa_allocate_exception(i64 40) #16
  invoke void @_ZN5faiss14FaissExceptionC1ERKNSt7__cxx1112basic_stringIcSt11char_traitsIcESaIcEEEPKcSA_i(ptr noundef nonnull align 8 dereferenceable(40) %20, ptr noundef nonnull align 8 dereferenceable(32) %9, ptr noundef nonnull @__PRETTY_FUNCTION__._ZNK5faiss11IndexBinary22search_and_reconstructElPKhlPiPlPhPKNS_16SearchParametersE, ptr noundef nonnull @.str.2, i32 noundef 71)
          to label %21 unwind label %24

21:                                               ; preds = %17
  invoke void @__cxa_throw(ptr nonnull %20, ptr nonnull @_ZTIN5faiss14FaissExceptionE, ptr nonnull @_ZN5faiss14FaissExceptionD2Ev) #17
          to label %51 unwind label %22

22:                                               ; preds = %21, %15, %11
  %23 = landingpad { ptr, i32 }
          cleanup
  br label %26

24:                                               ; preds = %17
  %25 = landingpad { ptr, i32 }
          cleanup
  call void @__cxa_free_exception(ptr %20) #16
  br label %26

26:                                               ; preds = %24, %22
  %.pn = phi { ptr, i32 } [ %23, %22 ], [ %25, %24 ]
  call void @_ZNSt7__cxx1112basic_stringIcSt11char_traitsIcESaIcEED1Ev(ptr noundef nonnull align 8 dereferenceable(32) %9) #16
  resume { ptr, i32 } %.pn

27:                                               ; preds = %8
  %28 = load ptr, ptr %0, align 8
  %29 = getelementptr inbounds i8, ptr %28, i64 40
  %30 = load ptr, ptr %29, align 8
  tail call void %30(ptr noundef nonnull align 8 dereferenceable(32) %0, i64 noundef %1, ptr noundef %2, i64 noundef %3, ptr noundef %4, ptr noundef %5, ptr noundef %7)
  %31 = icmp sgt i64 %1, 0
  br i1 %31, label %.preheader.us.preheader, label %._crit_edge35

.preheader.us.preheader:                          ; preds = %27
  %32 = getelementptr inbounds i8, ptr %0, i64 12
  br label %.preheader.us

.preheader.us:                                    ; preds = %.preheader.us.preheader, %._crit_edge.us
  %.02834.us = phi i64 [ %50, %._crit_edge.us ], [ 0, %.preheader.us.preheader ]
  %33 = mul nsw i64 %.02834.us, %3
  br label %34

34:                                               ; preds = %.preheader.us, %48
  %.02933.us = phi i64 [ 0, %.preheader.us ], [ %49, %48 ]
  %35 = add nuw nsw i64 %.02933.us, %33
  %36 = getelementptr inbounds i64, ptr %5, i64 %35
  %37 = load i64, ptr %36, align 8
  %38 = load i32, ptr %32, align 4
  %39 = sext i32 %38 to i64
  %40 = mul nsw i64 %35, %39
  %41 = getelementptr inbounds i8, ptr %6, i64 %40
  %42 = icmp slt i64 %37, 0
  br i1 %42, label %47, label %43

43:                                               ; preds = %34
  %44 = load ptr, ptr %0, align 8
  %45 = getelementptr inbounds i8, ptr %44, i64 72
  %46 = load ptr, ptr %45, align 8
  tail call void %46(ptr noundef nonnull align 8 dereferenceable(32) %0, i64 noundef %37, ptr noundef %41)
  br label %48

47:                                               ; preds = %34
  tail call void @llvm.memset.p0.i64(ptr align 1 %41, i8 -1, i64 %39, i1 false)
  br label %48

48:                                               ; preds = %47, %43
  %49 = add nuw nsw i64 %.02933.us, 1
  %exitcond.not = icmp eq i64 %49, %3
  br i1 %exitcond.not, label %._crit_edge.us, label %34, !llvm.loop !7

._crit_edge.us:                                   ; preds = %48
  %50 = add nuw nsw i64 %.02834.us, 1
  %exitcond37.not = icmp eq i64 %50, %1
  br i1 %exitcond37.not, label %._crit_edge35, label %.preheader.us, !llvm.loop !8

._crit_edge35:                                    ; preds = %._crit_edge.us, %27
  ret void

51:                                               ; preds = %21
  unreachable
}